target datalayout = "e-m:e-p270:32:32-p271:32:32-p272:64:64-i64:64-i128:128-f80:128-n8:16:32:64-S128"
target triple = "x86_64-pc-linux-gnu"

%struct.expert_field = type { i32, i32 }
%struct._header_field_info = type { ptr, ptr, i32, i32, ptr, i64, ptr, i32, i32, i32, i32, ptr }
%struct._per_sequence_t = type { ptr, i32, i32, ptr }
%struct._proto_node = type { ptr, ptr, ptr, ptr, ptr, ptr, ptr }
%struct.field_info = type { ptr, i32, i32, i32, i32, i32, i32, ptr, ptr, ptr, i32, i32 }
%struct._asn1_ctx_t = type { i32, i32, i8, ptr, ptr, ptr, ptr, ptr, %struct.anon.0, %struct.anon.3, %struct.anon.4, ptr }
%struct.anon.0 = type { i32, i8, i8, i8, ptr, ptr, i32, i32, ptr, ptr, ptr, %union.anon }
%union.anon = type { %struct.anon.1 }
%struct.anon.1 = type { ptr }
%struct.anon.3 = type { ptr, ptr, ptr }
%struct.anon.4 = type { i32, i8, ptr, i32, i32, ptr, ptr, ptr, %union.anon.5 }
%union.anon.5 = type { %struct.anon.6 }
%struct.anon.6 = type { ptr }

@display_internal_per_fields = internal global i8 0, align 1
@hf_per_sequence_of_length = internal global i32 0, align 4
@.str.9 = private unnamed_addr constant [6 x i8] c" item\00", align 1
@.str.10 = private unnamed_addr constant [7 x i8] c" items\00", align 1
@hf_per_extension_present_bit = internal global i32 0, align 4
@ei_per_size_constraint_too_few = internal global %struct.expert_field zeroinitializer, align 4
@ei_per_size_constraint_too_many = internal global %struct.expert_field zeroinitializer, align 4
@.str.169 = private unnamed_addr constant [46 x i8] c"Size constraint: too few items: %d (%d .. %d)\00", align 1
@.str.170 = private unnamed_addr constant [47 x i8] c"Size constraint: too many items: %d (%d .. %d)\00", align 1

; Function Attrs: null_pointer_is_valid sspstrong uwtable
define internal void @per_check_items(i32 noundef %0, i32 noundef %1, i32 noundef %2, ptr noundef %3, ptr noundef %4) #0 {
  %6 = alloca i32, align 4
  %7 = alloca i32, align 4
  %8 = alloca i32, align 4
  %9 = alloca ptr, align 8
  %10 = alloca ptr, align 8
  store i32 %0, ptr %6, align 4
  store i32 %1, ptr %7, align 4
  store i32 %2, ptr %8, align 4
  store ptr %3, ptr %9, align 8
  store ptr %4, ptr %10, align 8
  %11 = load i32, ptr %7, align 4
  %12 = icmp ne i32 %11, -1
  br i1 %12, label %13, label %26

13:                                               ; preds = %5
  %14 = load i32, ptr %6, align 4
  %15 = load i32, ptr %7, align 4
  %16 = icmp ult i32 %14, %15
  br i1 %16, label %17, label %26

17:                                               ; preds = %13
  %18 = load ptr, ptr %9, align 8
  %19 = getelementptr inbounds nuw %struct._asn1_ctx_t, ptr %18, i32 0, i32 3
  %20 = load ptr, ptr %19, align 8
  %21 = load ptr, ptr %10, align 8
  %22 = load i32, ptr %6, align 4
  %23 = load i32, ptr %7, align 4
  %24 = load i32, ptr %8, align 4
  %25 = call ptr (ptr, ptr, ptr, ptr, ...) @expert_add_info_format(ptr noundef %20, ptr noundef %21, ptr noundef @ei_per_size_constraint_too_few, ptr noundef @.str.169, i32 noundef %22, i32 noundef %23, i32 noundef %24)
  br label %43

26:                                               ; preds = %13, %5
  %27 = load i32, ptr %8, align 4
  %28 = icmp ne i32 %27, -1
  br i1 %28, label %29, label %42

29:                                               ; preds = %26
  %30 = load i32, ptr %6, align 4
  %31 = load i32, ptr %8, align 4
  %32 = icmp ugt i32 %30, %31
  br i1 %32, label %33, label %42

33:                                               ; preds = %29
  %34 = load ptr, ptr %9, align 8
  %35 = getelementptr inbounds nuw %struct._asn1_ctx_t, ptr %34, i32 0, i32 3
  %36 = load ptr, ptr %35, align 8
  %37 = load ptr, ptr %10, align 8
  %38 = load i32, ptr %6, align 4
  %39 = load i32, ptr %7, align 4
  %40 = load i32, ptr %8, align 4
  %41 = call ptr (ptr, ptr, ptr, ptr, ...) @expert_add_info_format(ptr noundef %36, ptr noundef %37, ptr noundef @ei_per_size_constraint_too_many, ptr noundef @.str.170, i32 noundef %38, i32 noundef %39, i32 noundef %40)
  br label %42

42:                                               ; preds = %33, %29, %26
  br label %43

43:                                               ; preds = %42, %17
  ret void
}

; Function Attrs: inlinehint nounwind null_pointer_is_valid sspstrong uwtable
define internal void @proto_item_set_hidden(ptr noundef %0) #3 {
  %2 = alloca ptr, align 8
  store ptr %0, ptr %2, align 8
  %3 = load ptr, ptr %2, align 8
  %4 = icmp ne ptr %3, null
  br i1 %4, label %5, label %24

5:                                                ; preds = %1
  br label %6

6:                                                ; preds = %5
  %7 = load ptr, ptr %2, align 8
  %8 = getelementptr inbounds nuw %struct._proto_node, ptr %7, i32 0, i32 5
  %9 = load ptr, ptr %8, align 8
  %10 = icmp ne ptr %9, null
  br i1 %10, label %11, label %22

11:                                               ; preds = %6
  %12 = load ptr, ptr %2, align 8
  %13 = getelementptr inbounds nuw %struct._proto_node, ptr %12, i32 0, i32 5
  %14 = load ptr, ptr %13, align 8
  %15 = getelementptr inbounds nuw %struct.field_info, ptr %14, i32 0, i32 6
  %16 = load i32, ptr %15, align 4
  %17 = or i32 %16, 1
  %18 = load ptr, ptr %2, align 8
  %19 = getelementptr inbounds nuw %struct._proto_node, ptr %18, i32 0, i32 5
  %20 = load ptr, ptr %19, align 8
  %21 = getelementptr inbounds nuw %struct.field_info, ptr %20, i32 0, i32 6
  store i32 %17, ptr %21, align 4
  br label %22

22:                                               ; preds = %11, %6
  br label %23

23:                                               ; preds = %22
  br label %24

24:                                               ; preds = %23, %1
  ret void
}

; Function Attrs: null_pointer_is_valid sspstrong uwtable
define i32 @dissect_per_constrained_sequence_of(ptr noundef %0, i32 noundef %1, ptr noundef %2, ptr noundef %3, i32 noundef %4, i32 noundef %5, ptr noundef %6, i32 noundef %7, i32 noundef %8, i1 noundef zeroext %9) #0 {
  %11 = alloca i32, align 4
  %12 = alloca ptr, align 8
  %13 = alloca i32, align 4
  %14 = alloca ptr, align 8
  %15 = alloca ptr, align 8
  %16 = alloca i32, align 4
  %17 = alloca i32, align 4
  %18 = alloca ptr, align 8
  %19 = alloca i32, align 4
  %20 = alloca i32, align 4
  %21 = alloca i8, align 1
  %22 = alloca ptr, align 8
  %23 = alloca ptr, align 8
  %24 = alloca i32, align 4
  %25 = alloca i32, align 4
  %26 = alloca ptr, align 8
  %27 = alloca i8, align 1
  %28 = alloca i32, align 4
  store ptr %0, ptr %12, align 8
  store i32 %1, ptr %13, align 4
  store ptr %2, ptr %14, align 8
  store ptr %3, ptr %15, align 8
  store i32 %4, ptr %16, align 4
  store i32 %5, ptr %17, align 4
  store ptr %6, ptr %18, align 8
  store i32 %7, ptr %19, align 4
  store i32 %8, ptr %20, align 4
  %29 = zext i1 %9 to i8
  store i8 %29, ptr %21, align 1
  call void @llvm.lifetime.start.p0(i64 8, ptr %22) #11
  call void @llvm.lifetime.start.p0(i64 8, ptr %23) #11
  call void @llvm.lifetime.start.p0(i64 4, ptr %24) #11
  %30 = load i32, ptr %13, align 4
  store i32 %30, ptr %24, align 4
  call void @llvm.lifetime.start.p0(i64 4, ptr %25) #11
  call void @llvm.lifetime.start.p0(i64 8, ptr %26) #11
  %31 = load i8, ptr %21, align 1, !range !6, !noundef !7
  %32 = trunc i8 %31 to i1
  br i1 %32, label %33, label %60

33:                                               ; preds = %10
  call void @llvm.lifetime.start.p0(i64 1, ptr %27) #11
  %34 = load ptr, ptr %12, align 8
  %35 = load i32, ptr %13, align 4
  %36 = load ptr, ptr %14, align 8
  %37 = load ptr, ptr %15, align 8
  %38 = load i32, ptr @hf_per_extension_present_bit, align 4
  %39 = call i32 @dissect_per_boolean(ptr noundef %34, i32 noundef %35, ptr noundef %36, ptr noundef %37, i32 noundef %38, ptr noundef %27)
  store i32 %39, ptr %13, align 4
  %40 = load i8, ptr @display_internal_per_fields, align 1, !range !6, !noundef !7
  %41 = trunc i8 %40 to i1
  br i1 %41, label %46, label %42

42:                                               ; preds = %33
  %43 = load ptr, ptr %14, align 8
  %44 = getelementptr inbounds nuw %struct._asn1_ctx_t, ptr %43, i32 0, i32 4
  %45 = load ptr, ptr %44, align 8
  call void @proto_item_set_hidden(ptr noundef %45)
  br label %46

46:                                               ; preds = %42, %33
  %47 = load i8, ptr %27, align 1, !range !6, !noundef !7
  %48 = trunc i8 %47 to i1
  br i1 %48, label %49, label %56

49:                                               ; preds = %46
  %50 = load ptr, ptr %12, align 8
  %51 = load i32, ptr %13, align 4
  %52 = load ptr, ptr %14, align 8
  %53 = load ptr, ptr %15, align 8
  %54 = load i32, ptr @hf_per_sequence_of_length, align 4
  %55 = call i32 @dissect_per_length_determinant(ptr noundef %50, i32 noundef %51, ptr noundef %52, ptr noundef %53, i32 noundef %54, ptr noundef %25, ptr noundef null)
  store i32 %55, ptr %13, align 4
  store i32 2, ptr %28, align 4
  br label %57

56:                                               ; preds = %46
  store i32 0, ptr %28, align 4
  br label %57

57:                                               ; preds = %49, %56
  call void @llvm.lifetime.end.p0(i64 1, ptr %27) #11
  %58 = load i32, ptr %28, align 4
  switch i32 %58, label %214 [
    i32 0, label %59
    i32 2, label %98
  ]

59:                                               ; preds = %57
  br label %60

60:                                               ; preds = %59, %10
  %61 = load i32, ptr %19, align 4
  %62 = load i32, ptr %20, align 4
  %63 = icmp eq i32 %61, %62
  br i1 %63, label %64, label %69

64:                                               ; preds = %60
  %65 = load i32, ptr %19, align 4
  %66 = icmp slt i32 %65, 65536
  br i1 %66, label %67, label %69

67:                                               ; preds = %64
  %68 = load i32, ptr %19, align 4
  store i32 %68, ptr %25, align 4
  br label %98

69:                                               ; preds = %64, %60
  %70 = load i32, ptr %20, align 4
  %71 = icmp sge i32 %70, 65536
  br i1 %71, label %75, label %72

72:                                               ; preds = %69
  %73 = load i32, ptr %20, align 4
  %74 = icmp eq i32 %73, -1
  br i1 %74, label %75, label %82

75:                                               ; preds = %72, %69
  %76 = load ptr, ptr %12, align 8
  %77 = load i32, ptr %13, align 4
  %78 = load ptr, ptr %14, align 8
  %79 = load ptr, ptr %15, align 8
  %80 = load i32, ptr @hf_per_sequence_of_length, align 4
  %81 = call i32 @dissect_per_length_determinant(ptr noundef %76, i32 noundef %77, ptr noundef %78, ptr noundef %79, i32 noundef %80, ptr noundef %25, ptr noundef null)
  store i32 %81, ptr %13, align 4
  br label %98

82:                                               ; preds = %72
  %83 = load ptr, ptr %12, align 8
  %84 = load i32, ptr %13, align 4
  %85 = load ptr, ptr %14, align 8
  %86 = load ptr, ptr %15, align 8
  %87 = load i32, ptr @hf_per_sequence_of_length, align 4
  %88 = load i32, ptr %19, align 4
  %89 = load i32, ptr %20, align 4
  %90 = call i32 @dissect_per_constrained_integer(ptr noundef %83, i32 noundef %84, ptr noundef %85, ptr noundef %86, i32 noundef %87, i32 noundef %88, i32 noundef %89, ptr noundef %25, i1 noundef zeroext false)
  store i32 %90, ptr %13, align 4
  %91 = load i8, ptr @display_internal_per_fields, align 1, !range !6, !noundef !7
  %92 = trunc i8 %91 to i1
  br i1 %92, label %97, label %93

93:                                               ; preds = %82
  %94 = load ptr, ptr %14, align 8
  %95 = getelementptr inbounds nuw %struct._asn1_ctx_t, ptr %94, i32 0, i32 4
  %96 = load ptr, ptr %95, align 8
  call void @proto_item_set_hidden(ptr noundef %96)
  br label %97

97:                                               ; preds = %93, %82
  br label %98

98:                                               ; preds = %97, %57, %75, %67
  %99 = load i32, ptr %16, align 4
  %100 = call ptr @proto_registrar_get_nth(i32 noundef %99)
  store ptr %100, ptr %26, align 8
  %101 = load ptr, ptr %26, align 8
  %102 = getelementptr inbounds nuw %struct._header_field_info, ptr %101, i32 0, i32 2
  %103 = load i32, ptr %102, align 8
  %104 = icmp eq i32 %103, 3
  br i1 %104, label %150, label %105

105:                                              ; preds = %98
  %106 = load ptr, ptr %26, align 8
  %107 = getelementptr inbounds nuw %struct._header_field_info, ptr %106, i32 0, i32 2
  %108 = load i32, ptr %107, align 8
  %109 = icmp eq i32 %108, 4
  br i1 %109, label %150, label %110

110:                                              ; preds = %105
  %111 = load ptr, ptr %26, align 8
  %112 = getelementptr inbounds nuw %struct._header_field_info, ptr %111, i32 0, i32 2
  %113 = load i32, ptr %112, align 8
  %114 = icmp eq i32 %113, 5
  br i1 %114, label %150, label %115

115:                                              ; preds = %110
  %116 = load ptr, ptr %26, align 8
  %117 = getelementptr inbounds nuw %struct._header_field_info, ptr %116, i32 0, i32 2
  %118 = load i32, ptr %117, align 8
  %119 = icmp eq i32 %118, 6
  br i1 %119, label %150, label %120

120:                                              ; preds = %115
  %121 = load ptr, ptr %26, align 8
  %122 = getelementptr inbounds nuw %struct._header_field_info, ptr %121, i32 0, i32 2
  %123 = load i32, ptr %122, align 8
  %124 = icmp eq i32 %123, 7
  br i1 %124, label %150, label %125

125:                                              ; preds = %120
  %126 = load ptr, ptr %26, align 8
  %127 = getelementptr inbounds nuw %struct._header_field_info, ptr %126, i32 0, i32 2
  %128 = load i32, ptr %127, align 8
  %129 = icmp eq i32 %128, 35
  br i1 %129, label %150, label %130

130:                                              ; preds = %125
  %131 = load ptr, ptr %26, align 8
  %132 = getelementptr inbounds nuw %struct._header_field_info, ptr %131, i32 0, i32 2
  %133 = load i32, ptr %132, align 8
  %134 = icmp eq i32 %133, 8
  br i1 %134, label %150, label %135

135:                                              ; preds = %130
  %136 = load ptr, ptr %26, align 8
  %137 = getelementptr inbounds nuw %struct._header_field_info, ptr %136, i32 0, i32 2
  %138 = load i32, ptr %137, align 8
  %139 = icmp eq i32 %138, 9
  br i1 %139, label %150, label %140

140:                                              ; preds = %135
  %141 = load ptr, ptr %26, align 8
  %142 = getelementptr inbounds nuw %struct._header_field_info, ptr %141, i32 0, i32 2
  %143 = load i32, ptr %142, align 8
  %144 = icmp eq i32 %143, 10
  br i1 %144, label %150, label %145

145:                                              ; preds = %140
  %146 = load ptr, ptr %26, align 8
  %147 = getelementptr inbounds nuw %struct._header_field_info, ptr %146, i32 0, i32 2
  %148 = load i32, ptr %147, align 8
  %149 = icmp eq i32 %148, 11
  br i1 %149, label %150, label %162

150:                                              ; preds = %145, %140, %135, %130, %125, %120, %115, %110, %105, %98
  %151 = load ptr, ptr %15, align 8
  %152 = load i32, ptr %16, align 4
  %153 = load ptr, ptr %12, align 8
  %154 = load i32, ptr %13, align 4
  %155 = lshr i32 %154, 3
  %156 = load i32, ptr %25, align 4
  %157 = call ptr @proto_tree_add_uint(ptr noundef %151, i32 noundef %152, ptr noundef %153, i32 noundef %155, i32 noundef 0, i32 noundef %156)
  store ptr %157, ptr %22, align 8
  %158 = load ptr, ptr %22, align 8
  %159 = load i32, ptr %25, align 4
  %160 = icmp eq i32 %159, 1
  %161 = select i1 %160, ptr @.str.9, ptr @.str.10
  call void (ptr, ptr, ...) @proto_item_append_text(ptr noundef %158, ptr noundef %161)
  br label %169

162:                                              ; preds = %145
  %163 = load ptr, ptr %15, align 8
  %164 = load i32, ptr %16, align 4
  %165 = load ptr, ptr %12, align 8
  %166 = load i32, ptr %13, align 4
  %167 = lshr i32 %166, 3
  %168 = call ptr @proto_tree_add_item(ptr noundef %163, i32 noundef %164, ptr noundef %165, i32 noundef %167, i32 noundef 0, i32 noundef 0)
  store ptr %168, ptr %22, align 8
  br label %169

169:                                              ; preds = %162, %150
  %170 = load ptr, ptr %22, align 8
  %171 = load i32, ptr %17, align 4
  %172 = call ptr @proto_item_add_subtree(ptr noundef %170, i32 noundef %171)
  store ptr %172, ptr %23, align 8
  %173 = load i32, ptr %25, align 4
  %174 = load i32, ptr %19, align 4
  %175 = load i32, ptr %20, align 4
  %176 = load ptr, ptr %14, align 8
  %177 = load ptr, ptr %22, align 8
  call void @per_check_items(i32 noundef %173, i32 noundef %174, i32 noundef %175, ptr noundef %176, ptr noundef %177)
  %178 = load i32, ptr %13, align 4
  store i32 %178, ptr %24, align 4
  %179 = load ptr, ptr %12, align 8
  %180 = load i32, ptr %13, align 4
  %181 = load ptr, ptr %14, align 8
  %182 = load ptr, ptr %23, align 8
  %183 = load ptr, ptr %18, align 8
  %184 = getelementptr inbounds nuw %struct._per_sequence_t, ptr %183, i32 0, i32 3
  %185 = load ptr, ptr %184, align 8
  %186 = load ptr, ptr %18, align 8
  %187 = getelementptr inbounds nuw %struct._per_sequence_t, ptr %186, i32 0, i32 0
  %188 = load ptr, ptr %187, align 8
  %189 = load i32, ptr %188, align 4
  %190 = load i32, ptr %25, align 4
  %191 = call i32 @dissect_per_sequence_of_helper(ptr noundef %179, i32 noundef %180, ptr noundef %181, ptr noundef %182, ptr noundef %185, i32 noundef %189, i32 noundef %190)
  store i32 %191, ptr %13, align 4
  %192 = load i32, ptr %13, align 4
  %193 = load i32, ptr %24, align 4
  %194 = icmp eq i32 %192, %193
  br i1 %194, label %195, label %196

195:                                              ; preds = %169
  store i32 0, ptr %25, align 4
  br label %210

196:                                              ; preds = %169
  %197 = load i32, ptr %13, align 4
  %198 = lshr i32 %197, 3
  %199 = load i32, ptr %24, align 4
  %200 = lshr i32 %199, 3
  %201 = icmp eq i32 %198, %200
  br i1 %201, label %202, label %203

202:                                              ; preds = %196
  store i32 1, ptr %25, align 4
  br label %209

203:                                              ; preds = %196
  %204 = load i32, ptr %13, align 4
  %205 = lshr i32 %204, 3
  %206 = load i32, ptr %24, align 4
  %207 = lshr i32 %206, 3
  %208 = sub i32 %205, %207
  store i32 %208, ptr %25, align 4
  br label %209

209:                                              ; preds = %203, %202
  br label %210

210:                                              ; preds = %209, %195
  %211 = load ptr, ptr %22, align 8
  %212 = load i32, ptr %25, align 4
  call void @proto_item_set_len(ptr noundef %211, i32 noundef %212)
  %213 = load i32, ptr %13, align 4
  store i32 %213, ptr %11, align 4
  store i32 1, ptr %28, align 4
  br label %214

214:                                              ; preds = %210, %57
  call void @llvm.lifetime.end.p0(i64 8, ptr %26) #11
  call void @llvm.lifetime.end.p0(i64 4, ptr %25) #11
  call void @llvm.lifetime.end.p0(i64 4, ptr %24) #11
  call void @llvm.lifetime.end.p0(i64 8, ptr %23) #11
  call void @llvm.lifetime.end.p0(i64 8, ptr %22) #11
  %215 = load i32, ptr %11, align 4
  ret i32 %215
}