; Function Attrs: null_pointer_is_valid sspstrong uwtable
define i32 @dissect_per_constrained_sequence_of(ptr noundef %0, i32 noundef %1, ptr noundef %2, ptr noundef %3, i32 noundef %4, i32 noundef %5, ptr noundef readonly captures(none) %6, i32 noundef %7, i32 noundef %8, i1 noundef zeroext %9) local_unnamed_addr #0 {
  %11 = alloca i32, align 4
  %12 = alloca i8, align 1
  call void @llvm.lifetime.start.p0(i64 4, ptr nonnull %11) #13
  br i1 %9, label %13, label %33

13:                                               ; preds = %10
  call void @llvm.lifetime.start.p0(i64 1, ptr nonnull %12) #13
  %14 = load i32, ptr @hf_per_extension_present_bit, align 4
  %15 = call i32 @dissect_per_boolean(ptr noundef %0, i32 noundef %1, ptr noundef %2, ptr noundef %3, i32 noundef %14, ptr noundef nonnull %12)
  %16 = load i8, ptr @display_internal_per_fields, align 1, !range !6, !noundef !7
  %17 = trunc nuw i8 %16 to i1
  br i1 %17, label %proto_item_set_hidden.exit, label %18

18:                                               ; preds = %13
  %19 = getelementptr inbounds nuw i8, ptr %2, i64 24
  %20 = load ptr, ptr %19, align 8
  %.not.i = icmp eq ptr %20, null
  br i1 %.not.i, label %proto_item_set_hidden.exit, label %21

21:                                               ; preds = %18
  %22 = getelementptr inbounds nuw i8, ptr %20, i64 40
  %23 = load ptr, ptr %22, align 8
  %.not5.i = icmp eq ptr %23, null
  br i1 %.not5.i, label %proto_item_set_hidden.exit, label %24

24:                                               ; preds = %21
  %25 = getelementptr inbounds nuw i8, ptr %23, i64 28
  %26 = load i32, ptr %25, align 4
  %27 = or i32 %26, 1
  store i32 %27, ptr %25, align 4
  br label %proto_item_set_hidden.exit

proto_item_set_hidden.exit:                       ; preds = %24, %21, %18, %13
  %28 = load i8, ptr %12, align 1, !range !6, !noundef !7
  %29 = trunc nuw i8 %28 to i1
  br i1 %29, label %30, label %.thread

.thread:                                          ; preds = %proto_item_set_hidden.exit
  call void @llvm.lifetime.end.p0(i64 1, ptr nonnull %12) #13
  br label %33

30:                                               ; preds = %proto_item_set_hidden.exit
  %31 = load i32, ptr @hf_per_sequence_of_length, align 4
  %32 = call i32 @dissect_per_length_determinant(ptr noundef %0, i32 noundef %15, ptr noundef %2, ptr noundef %3, i32 noundef %31, ptr noundef nonnull %11, ptr noundef null)
  call void @llvm.lifetime.end.p0(i64 1, ptr nonnull %12) #13
  br label %proto_item_set_hidden.exit85

33:                                               ; preds = %.thread, %10
  %.074 = phi i32 [ %1, %10 ], [ %15, %.thread ]
  %34 = icmp eq i32 %7, %8
  %35 = icmp slt i32 %7, 65536
  %or.cond = and i1 %35, %34
  br i1 %or.cond, label %36, label %37

36:                                               ; preds = %33
  store i32 %7, ptr %11, align 4
  br label %proto_item_set_hidden.exit85

37:                                               ; preds = %33
  %38 = icmp sgt i32 %8, 65535
  %39 = icmp eq i32 %8, -1
  %or.cond3 = or i1 %38, %39
  %40 = load i32, ptr @hf_per_sequence_of_length, align 4
  br i1 %or.cond3, label %41, label %43

41:                                               ; preds = %37
  %42 = call i32 @dissect_per_length_determinant(ptr noundef %0, i32 noundef %.074, ptr noundef %2, ptr noundef %3, i32 noundef %40, ptr noundef nonnull %11, ptr noundef null)
  br label %proto_item_set_hidden.exit85

43:                                               ; preds = %37
  %44 = call i32 @dissect_per_constrained_integer(ptr noundef %0, i32 noundef %.074, ptr noundef %2, ptr noundef %3, i32 noundef %40, i32 noundef %7, i32 noundef %8, ptr noundef nonnull %11, i1 noundef zeroext false)
  %45 = load i8, ptr @display_internal_per_fields, align 1, !range !6, !noundef !7
  %46 = trunc nuw i8 %45 to i1
  br i1 %46, label %proto_item_set_hidden.exit85, label %47

47:                                               ; preds = %43
  %48 = getelementptr inbounds nuw i8, ptr %2, i64 24
  %49 = load ptr, ptr %48, align 8
  %.not.i83 = icmp eq ptr %49, null
  br i1 %.not.i83, label %proto_item_set_hidden.exit85, label %50

50:                                               ; preds = %47
  %51 = getelementptr inbounds nuw i8, ptr %49, i64 40
  %52 = load ptr, ptr %51, align 8
  %.not5.i84 = icmp eq ptr %52, null
  br i1 %.not5.i84, label %proto_item_set_hidden.exit85, label %53

53:                                               ; preds = %50
  %54 = getelementptr inbounds nuw i8, ptr %52, i64 28
  %55 = load i32, ptr %54, align 4
  %56 = or i32 %55, 1
  store i32 %56, ptr %54, align 4
  br label %proto_item_set_hidden.exit85

proto_item_set_hidden.exit85:                     ; preds = %53, %50, %47, %30, %43, %41, %36
  %.2 = phi i32 [ %32, %30 ], [ %.074, %36 ], [ %42, %41 ], [ %44, %43 ], [ %44, %47 ], [ %44, %50 ], [ %44, %53 ]
  %57 = call ptr @proto_registrar_get_nth(i32 noundef %4)
  %58 = getelementptr inbounds nuw i8, ptr %57, i64 16
  %59 = load i32, ptr %58, align 8
  switch i32 %59, label %67 [
    i32 3, label %60
    i32 4, label %60
    i32 5, label %60
    i32 6, label %60
    i32 7, label %60
    i32 35, label %60
    i32 8, label %60
    i32 9, label %60
    i32 10, label %60
    i32 11, label %60
  ]

60:                                               ; preds = %proto_item_set_hidden.exit85, %proto_item_set_hidden.exit85, %proto_item_set_hidden.exit85, %proto_item_set_hidden.exit85, %proto_item_set_hidden.exit85, %proto_item_set_hidden.exit85, %proto_item_set_hidden.exit85, %proto_item_set_hidden.exit85, %proto_item_set_hidden.exit85, %proto_item_set_hidden.exit85
  %61 = lshr i32 %.2, 3
  %62 = load i32, ptr %11, align 4
  %63 = call ptr @proto_tree_add_uint(ptr noundef %3, i32 noundef %4, ptr noundef %0, i32 noundef %61, i32 noundef 0, i32 noundef %62)
  %64 = load i32, ptr %11, align 4
  %65 = icmp eq i32 %64, 1
  %66 = select i1 %65, ptr @.str.9, ptr @.str.10
  call void (ptr, ptr, ...) @proto_item_append_text(ptr noundef %63, ptr noundef nonnull %66)
  br label %70

67:                                               ; preds = %proto_item_set_hidden.exit85
  %68 = lshr i32 %.2, 3
  %69 = call ptr @proto_tree_add_item(ptr noundef %3, i32 noundef %4, ptr noundef %0, i32 noundef %68, i32 noundef 0, i32 noundef 0)
  br label %70

70:                                               ; preds = %67, %60
  %.075 = phi ptr [ %63, %60 ], [ %69, %67 ]
  %71 = call ptr @proto_item_add_subtree(ptr noundef %.075, i32 noundef %5)
  %72 = load i32, ptr %11, align 4
  %.not.i86 = icmp ne i32 %7, -1
  %73 = icmp ult i32 %72, %7
  %or.cond.i = and i1 %.not.i86, %73
  br i1 %or.cond.i, label %74, label %78

74:                                               ; preds = %70
  %75 = getelementptr inbounds nuw i8, ptr %2, i64 16
  %76 = load ptr, ptr %75, align 8
  %77 = call ptr (ptr, ptr, ptr, ptr, ...) @expert_add_info_format(ptr noundef %76, ptr noundef %.075, ptr noundef nonnull @ei_per_size_constraint_too_few, ptr noundef nonnull @.str.169, i32 noundef %72, i32 noundef %7, i32 noundef %8)
  br label %per_check_items.exit

78:                                               ; preds = %70
  %79 = icmp ugt i32 %72, %8
  br i1 %79, label %80, label %per_check_items.exit

80:                                               ; preds = %78
  %81 = getelementptr inbounds nuw i8, ptr %2, i64 16
  %82 = load ptr, ptr %81, align 8
  %83 = call ptr (ptr, ptr, ptr, ptr, ...) @expert_add_info_format(ptr noundef %82, ptr noundef %.075, ptr noundef nonnull @ei_per_size_constraint_too_many, ptr noundef nonnull @.str.170, i32 noundef %72, i32 noundef %7, i32 noundef %8)
  br label %per_check_items.exit

per_check_items.exit:                             ; preds = %74, %78, %80
  %84 = getelementptr inbounds nuw i8, ptr %6, i64 16
  %85 = load ptr, ptr %84, align 8
  %86 = load ptr, ptr %6, align 8
  %87 = load i32, ptr %86, align 4
  %88 = load i32, ptr %11, align 4
  %89 = call fastcc i32 @dissect_per_sequence_of_helper(ptr noundef %0, i32 noundef %.2, ptr noundef %2, ptr noundef %71, ptr noundef %85, i32 noundef %87, i32 noundef %88)
  %90 = icmp eq i32 %89, %.2
  br i1 %90, label %96, label %91

91:                                               ; preds = %per_check_items.exit
  %92 = lshr i32 %89, 3
  %93 = lshr i32 %.2, 3
  %94 = icmp eq i32 %92, %93
  %95 = sub nsw i32 %92, %93
  %spec.select = select i1 %94, i32 1, i32 %95
  br label %96

96:                                               ; preds = %91, %per_check_items.exit
  %.sink = phi i32 [ 0, %per_check_items.exit ], [ %spec.select, %91 ]
  store i32 %.sink, ptr %11, align 4
  call void @proto_item_set_len(ptr noundef %.075, i32 noundef %.sink)
  call void @llvm.lifetime.end.p0(i64 4, ptr nonnull %11) #13
  ret i32 %89
}